; Function Attrs: mustprogress nofree norecurse nosync nounwind willreturn memory(argmem: write) uwtable
define void @grpc_slice_from_static_buffer(ptr dead_on_unwind noalias writable writeonly sret(%struct.grpc_slice) align 8 captures(none) initializes((0, 32)) %0, ptr noundef %1, i64 noundef %2) local_unnamed_addr #6 {
  store ptr inttoptr (i64 1 to ptr), ptr %0, align 8, !tbaa !29
  %.sroa.5.0..sroa_idx = getelementptr inbounds nuw i8, ptr %0, i64 8
  store i64 %2, ptr %.sroa.5.0..sroa_idx, align 8
  %.sroa.6.0..sroa_idx = getelementptr inbounds nuw i8, ptr %0, i64 16
  store ptr %1, ptr %.sroa.6.0..sroa_idx, align 8
  %.sroa.7.0..sroa_idx = getelementptr inbounds nuw i8, ptr %0, i64 24
  store i64 0, ptr %.sroa.7.0..sroa_idx, align 8, !tbaa !9
  ret void
}